target datalayout = "e-m:e-p270:32:32-p271:32:32-p272:64:64-i64:64-i128:128-f80:128-n8:16:32:64-S128"
target triple = "x86_64-pc-linux-gnu"

%struct._value_string = type { i32, ptr }
%struct.lcid_drb_mapping_t = type { i32, i32, i32, i32 }

; Function Attrs: nounwind uwtable
define internal void @lcid_drb_mappings_bearer_type_dl_set_cb(ptr noundef %0, ptr noundef %1, i32 noundef %2, ptr noundef %3, ptr noundef %4) #0 {
  %6 = alloca ptr, align 8
  %7 = alloca ptr, align 8
  %8 = alloca i32, align 4
  %9 = alloca ptr, align 8
  %10 = alloca ptr, align 8
  %11 = alloca i32, align 4
  %12 = alloca ptr, align 8
  %13 = alloca ptr, align 8
  store ptr %0, ptr %6, align 8
  store ptr %1, ptr %7, align 8
  store i32 %2, ptr %8, align 4
  store ptr %3, ptr %9, align 8
  store ptr %4, ptr %10, align 8
  %14 = load ptr, ptr %7, align 8
  %15 = load i32, ptr %8, align 4
  %16 = zext i32 %15 to i64
  %17 = call noalias ptr @g_strndup(ptr noundef %14, i64 noundef %16)
  store ptr %17, ptr %12, align 8
  %18 = load ptr, ptr %6, align 8
  %19 = getelementptr inbounds %struct.lcid_drb_mapping_t, ptr %18, i32 0, i32 3
  store i32 4, ptr %19, align 4
  store i32 0, ptr %11, align 4
  br label %20

20:                                               ; preds = %44, %5
  %21 = load ptr, ptr %9, align 8
  %22 = load i32, ptr %11, align 4
  %23 = zext i32 %22 to i64
  %24 = getelementptr %struct._value_string, ptr %21, i64 %23
  %25 = getelementptr inbounds %struct._value_string, ptr %24, i32 0, i32 1
  %26 = load ptr, ptr %25, align 8
  store ptr %26, ptr %13, align 8
  %27 = icmp ne ptr %26, null
  br i1 %27, label %28, label %47

28:                                               ; preds = %20
  %29 = load ptr, ptr %13, align 8
  %30 = load ptr, ptr %12, align 8
  %31 = call i32 @g_str_equal(ptr noundef %29, ptr noundef %30)
  %32 = icmp ne i32 %31, 0
  br i1 %32, label %33, label %43

33:                                               ; preds = %28
  %34 = load ptr, ptr %9, align 8
  %35 = load i32, ptr %11, align 4
  %36 = zext i32 %35 to i64
  %37 = getelementptr %struct._value_string, ptr %34, i64 %36
  %38 = getelementptr inbounds %struct._value_string, ptr %37, i32 0, i32 0
  %39 = load i32, ptr %38, align 8
  %40 = load ptr, ptr %6, align 8
  %41 = getelementptr inbounds %struct.lcid_drb_mapping_t, ptr %40, i32 0, i32 3
  store i32 %39, ptr %41, align 4
  %42 = load ptr, ptr %12, align 8
  call void @g_free(ptr noundef %42)
  br label %49

43:                                               ; preds = %28
  br label %44

44:                                               ; preds = %43
  %45 = load i32, ptr %11, align 4
  %46 = add i32 %45, 1
  store i32 %46, ptr %11, align 4
  br label %20, !llvm.loop !10

47:                                               ; preds = %20
  %48 = load ptr, ptr %12, align 8
  call void @g_free(ptr noundef %48)
  br label %49

49:                                               ; preds = %47, %33
  ret void
}